target datalayout = "e-m:e-p270:32:32-p271:32:32-p272:64:64-i64:64-i128:128-f80:128-n8:16:32:64-S128"
target triple = "x86_64-pc-linux-gnu"

; Function Attrs: nounwind uwtable
define i64 @ARMT_Convert(ptr noundef %0, i64 noundef %1, i32 noundef %2, i32 noundef %3) #0 {
  %5 = alloca i64, align 8
  %6 = alloca ptr, align 8
  %7 = alloca i64, align 8
  %8 = alloca i32, align 4
  %9 = alloca i32, align 4
  %10 = alloca i64, align 8
  %11 = alloca i32, align 4
  %12 = alloca i32, align 4
  %13 = alloca i32, align 4
  store ptr %0, ptr %6, align 8, !tbaa !3
  store i64 %1, ptr %7, align 8, !tbaa !8
  store i32 %2, ptr %8, align 4, !tbaa !10
  store i32 %3, ptr %9, align 4, !tbaa !10
  call void @llvm.lifetime.start.p0(i64 8, ptr %10) #2
  %14 = load i64, ptr %7, align 8, !tbaa !8
  %15 = icmp ult i64 %14, 4
  br i1 %15, label %16, label %17

16:                                               ; preds = %4
  store i64 0, ptr %5, align 8
  store i32 1, ptr %11, align 4
  br label %137

17:                                               ; preds = %4
  %18 = load i64, ptr %7, align 8, !tbaa !8
  %19 = sub i64 %18, 4
  store i64 %19, ptr %7, align 8, !tbaa !8
  %20 = load i32, ptr %8, align 4, !tbaa !10
  %21 = add i32 %20, 4
  store i32 %21, ptr %8, align 4, !tbaa !10
  store i64 0, ptr %10, align 8, !tbaa !8
  br label %22

22:                                               ; preds = %132, %17
  %23 = load i64, ptr %10, align 8, !tbaa !8
  %24 = load i64, ptr %7, align 8, !tbaa !8
  %25 = icmp ule i64 %23, %24
  br i1 %25, label %26, label %135

26:                                               ; preds = %22
  %27 = load ptr, ptr %6, align 8, !tbaa !3
  %28 = load i64, ptr %10, align 8, !tbaa !8
  %29 = add i64 %28, 1
  %30 = getelementptr inbounds nuw i8, ptr %27, i64 %29
  %31 = load i8, ptr %30, align 1, !tbaa !12
  %32 = zext i8 %31 to i32
  %33 = and i32 %32, 248
  %34 = icmp eq i32 %33, 240
  br i1 %34, label %35, label %131

35:                                               ; preds = %26
  %36 = load ptr, ptr %6, align 8, !tbaa !3
  %37 = load i64, ptr %10, align 8, !tbaa !8
  %38 = add i64 %37, 3
  %39 = getelementptr inbounds nuw i8, ptr %36, i64 %38
  %40 = load i8, ptr %39, align 1, !tbaa !12
  %41 = zext i8 %40 to i32
  %42 = and i32 %41, 248
  %43 = icmp eq i32 %42, 248
  br i1 %43, label %44, label %131

44:                                               ; preds = %35
  call void @llvm.lifetime.start.p0(i64 4, ptr %12) #2
  call void @llvm.lifetime.start.p0(i64 4, ptr %13) #2
  %45 = load ptr, ptr %6, align 8, !tbaa !3
  %46 = load i64, ptr %10, align 8, !tbaa !8
  %47 = add i64 %46, 1
  %48 = getelementptr inbounds nuw i8, ptr %45, i64 %47
  %49 = load i8, ptr %48, align 1, !tbaa !12
  %50 = zext i8 %49 to i32
  %51 = and i32 %50, 7
  %52 = shl i32 %51, 19
  %53 = load ptr, ptr %6, align 8, !tbaa !3
  %54 = load i64, ptr %10, align 8, !tbaa !8
  %55 = add i64 %54, 0
  %56 = getelementptr inbounds nuw i8, ptr %53, i64 %55
  %57 = load i8, ptr %56, align 1, !tbaa !12
  %58 = zext i8 %57 to i32
  %59 = shl i32 %58, 11
  %60 = or i32 %52, %59
  %61 = load ptr, ptr %6, align 8, !tbaa !3
  %62 = load i64, ptr %10, align 8, !tbaa !8
  %63 = add i64 %62, 3
  %64 = getelementptr inbounds nuw i8, ptr %61, i64 %63
  %65 = load i8, ptr %64, align 1, !tbaa !12
  %66 = zext i8 %65 to i32
  %67 = and i32 %66, 7
  %68 = shl i32 %67, 8
  %69 = or i32 %60, %68
  %70 = load ptr, ptr %6, align 8, !tbaa !3
  %71 = load i64, ptr %10, align 8, !tbaa !8
  %72 = add i64 %71, 2
  %73 = getelementptr inbounds nuw i8, ptr %70, i64 %72
  %74 = load i8, ptr %73, align 1, !tbaa !12
  %75 = zext i8 %74 to i32
  %76 = or i32 %69, %75
  store i32 %76, ptr %13, align 4, !tbaa !10
  %77 = load i32, ptr %13, align 4, !tbaa !10
  %78 = shl i32 %77, 1
  store i32 %78, ptr %13, align 4, !tbaa !10
  %79 = load i32, ptr %9, align 4, !tbaa !10
  %80 = icmp ne i32 %79, 0
  br i1 %80, label %81, label %88

81:                                               ; preds = %44
  %82 = load i32, ptr %8, align 4, !tbaa !10
  %83 = load i64, ptr %10, align 8, !tbaa !8
  %84 = trunc i64 %83 to i32
  %85 = add i32 %82, %84
  %86 = load i32, ptr %13, align 4, !tbaa !10
  %87 = add i32 %85, %86
  store i32 %87, ptr %12, align 4, !tbaa !10
  br label %95

88:                                               ; preds = %44
  %89 = load i32, ptr %13, align 4, !tbaa !10
  %90 = load i32, ptr %8, align 4, !tbaa !10
  %91 = load i64, ptr %10, align 8, !tbaa !8
  %92 = trunc i64 %91 to i32
  %93 = add i32 %90, %92
  %94 = sub i32 %89, %93
  store i32 %94, ptr %12, align 4, !tbaa !10
  br label %95

95:                                               ; preds = %88, %81
  %96 = load i32, ptr %12, align 4, !tbaa !10
  %97 = lshr i32 %96, 1
  store i32 %97, ptr %12, align 4, !tbaa !10
  %98 = load i32, ptr %12, align 4, !tbaa !10
  %99 = lshr i32 %98, 19
  %100 = and i32 %99, 7
  %101 = or i32 240, %100
  %102 = trunc i32 %101 to i8
  %103 = load ptr, ptr %6, align 8, !tbaa !3
  %104 = load i64, ptr %10, align 8, !tbaa !8
  %105 = add i64 %104, 1
  %106 = getelementptr inbounds nuw i8, ptr %103, i64 %105
  store i8 %102, ptr %106, align 1, !tbaa !12
  %107 = load i32, ptr %12, align 4, !tbaa !10
  %108 = lshr i32 %107, 11
  %109 = trunc i32 %108 to i8
  %110 = load ptr, ptr %6, align 8, !tbaa !3
  %111 = load i64, ptr %10, align 8, !tbaa !8
  %112 = add i64 %111, 0
  %113 = getelementptr inbounds nuw i8, ptr %110, i64 %112
  store i8 %109, ptr %113, align 1, !tbaa !12
  %114 = load i32, ptr %12, align 4, !tbaa !10
  %115 = lshr i32 %114, 8
  %116 = and i32 %115, 7
  %117 = or i32 248, %116
  %118 = trunc i32 %117 to i8
  %119 = load ptr, ptr %6, align 8, !tbaa !3
  %120 = load i64, ptr %10, align 8, !tbaa !8
  %121 = add i64 %120, 3
  %122 = getelementptr inbounds nuw i8, ptr %119, i64 %121
  store i8 %118, ptr %122, align 1, !tbaa !12
  %123 = load i32, ptr %12, align 4, !tbaa !10
  %124 = trunc i32 %123 to i8
  %125 = load ptr, ptr %6, align 8, !tbaa !3
  %126 = load i64, ptr %10, align 8, !tbaa !8
  %127 = add i64 %126, 2
  %128 = getelementptr inbounds nuw i8, ptr %125, i64 %127
  store i8 %124, ptr %128, align 1, !tbaa !12
  %129 = load i64, ptr %10, align 8, !tbaa !8
  %130 = add i64 %129, 2
  store i64 %130, ptr %10, align 8, !tbaa !8
  call void @llvm.lifetime.end.p0(i64 4, ptr %13) #2
  call void @llvm.lifetime.end.p0(i64 4, ptr %12) #2
  br label %131

131:                                              ; preds = %95, %35, %26
  br label %132

132:                                              ; preds = %131
  %133 = load i64, ptr %10, align 8, !tbaa !8
  %134 = add i64 %133, 2
  store i64 %134, ptr %10, align 8, !tbaa !8
  br label %22

135:                                              ; preds = %22
  %136 = load i64, ptr %10, align 8, !tbaa !8
  store i64 %136, ptr %5, align 8
  store i32 1, ptr %11, align 4
  br label %137

137:                                              ; preds = %135, %16
  call void @llvm.lifetime.end.p0(i64 8, ptr %10) #2
  %138 = load i64, ptr %5, align 8
  ret i64 %138
}