; Function Attrs: nofree norecurse nosync nounwind memory(argmem: readwrite) uwtable
define i64 @ARMT_Convert(ptr noundef captures(none) %0, i64 noundef %1, i32 noundef %2, i32 noundef %3) local_unnamed_addr #0 {
  %5 = icmp ult i64 %1, 4
  br i1 %5, label %.loopexit, label %6

6:                                                ; preds = %4
  %7 = add i64 %1, -4
  %8 = add i32 %2, 4
  %.not44 = icmp eq i32 %3, 0
  br i1 %.not44, label %.split.us, label %.split

.split.us:                                        ; preds = %6, %50
  %.04145.us = phi i64 [ %51, %50 ], [ 0, %6 ]
  %9 = getelementptr i8, ptr %0, i64 %.04145.us
  %10 = getelementptr i8, ptr %9, i64 1
  %11 = load i8, ptr %10, align 1, !tbaa !3
  %12 = zext i8 %11 to i32
  %13 = and i32 %12, 248
  %14 = icmp eq i32 %13, 240
  br i1 %14, label %15, label %50

15:                                               ; preds = %.split.us
  %16 = getelementptr i8, ptr %9, i64 3
  %17 = load i8, ptr %16, align 1, !tbaa !3
  %18 = zext i8 %17 to i32
  %19 = and i32 %18, 248
  %20 = icmp eq i32 %19, 248
  br i1 %20, label %21, label %50

21:                                               ; preds = %15
  %22 = shl nuw nsw i32 %12, 19
  %23 = and i32 %22, 3670016
  %24 = load i8, ptr %9, align 1, !tbaa !3
  %25 = zext i8 %24 to i32
  %26 = shl nuw nsw i32 %25, 11
  %27 = or disjoint i32 %26, %23
  %28 = shl nuw nsw i32 %18, 8
  %29 = and i32 %28, 1792
  %30 = or disjoint i32 %27, %29
  %31 = add nuw i64 %.04145.us, 2
  %32 = getelementptr inbounds nuw i8, ptr %0, i64 %31
  %33 = load i8, ptr %32, align 1, !tbaa !3
  %34 = zext i8 %33 to i32
  %35 = or disjoint i32 %30, %34
  %36 = shl nuw nsw i32 %35, 1
  %37 = trunc i64 %.04145.us to i32
  %38 = add i32 %8, %37
  %.0.us = sub i32 %36, %38
  %39 = lshr i32 %.0.us, 1
  %40 = lshr i32 %.0.us, 20
  %41 = trunc i32 %40 to i8
  %42 = and i8 %41, 7
  %43 = or disjoint i8 %42, -16
  store i8 %43, ptr %10, align 1, !tbaa !3
  %44 = lshr i32 %.0.us, 12
  %45 = trunc i32 %44 to i8
  store i8 %45, ptr %9, align 1, !tbaa !3
  %46 = lshr i32 %.0.us, 9
  %47 = trunc i32 %46 to i8
  %48 = or i8 %47, -8
  store i8 %48, ptr %16, align 1, !tbaa !3
  %49 = trunc i32 %39 to i8
  store i8 %49, ptr %32, align 1, !tbaa !3
  br label %50

50:                                               ; preds = %21, %15, %.split.us
  %.1.us = phi i64 [ %31, %21 ], [ %.04145.us, %15 ], [ %.04145.us, %.split.us ]
  %51 = add i64 %.1.us, 2
  %.not.us = icmp ugt i64 %51, %7
  br i1 %.not.us, label %.loopexit, label %.split.us

.split:                                           ; preds = %6, %93
  %.04145 = phi i64 [ %94, %93 ], [ 0, %6 ]
  %52 = getelementptr i8, ptr %0, i64 %.04145
  %53 = getelementptr i8, ptr %52, i64 1
  %54 = load i8, ptr %53, align 1, !tbaa !3
  %55 = zext i8 %54 to i32
  %56 = and i32 %55, 248
  %57 = icmp eq i32 %56, 240
  br i1 %57, label %58, label %93

58:                                               ; preds = %.split
  %59 = getelementptr i8, ptr %52, i64 3
  %60 = load i8, ptr %59, align 1, !tbaa !3
  %61 = zext i8 %60 to i32
  %62 = and i32 %61, 248
  %63 = icmp eq i32 %62, 248
  br i1 %63, label %64, label %93

64:                                               ; preds = %58
  %65 = shl nuw nsw i32 %55, 19
  %66 = and i32 %65, 3670016
  %67 = load i8, ptr %52, align 1, !tbaa !3
  %68 = zext i8 %67 to i32
  %69 = shl nuw nsw i32 %68, 11
  %70 = or disjoint i32 %69, %66
  %71 = shl nuw nsw i32 %61, 8
  %72 = and i32 %71, 1792
  %73 = or disjoint i32 %70, %72
  %74 = add nuw i64 %.04145, 2
  %75 = getelementptr inbounds nuw i8, ptr %0, i64 %74
  %76 = load i8, ptr %75, align 1, !tbaa !3
  %77 = zext i8 %76 to i32
  %78 = or disjoint i32 %73, %77
  %79 = shl nuw nsw i32 %78, 1
  %80 = trunc i64 %.04145 to i32
  %81 = add i32 %8, %80
  %.0 = add i32 %79, %81
  %82 = lshr i32 %.0, 1
  %83 = lshr i32 %.0, 20
  %84 = trunc i32 %83 to i8
  %85 = and i8 %84, 7
  %86 = or disjoint i8 %85, -16
  store i8 %86, ptr %53, align 1, !tbaa !3
  %87 = lshr i32 %.0, 12
  %88 = trunc i32 %87 to i8
  store i8 %88, ptr %52, align 1, !tbaa !3
  %89 = lshr i32 %.0, 9
  %90 = trunc i32 %89 to i8
  %91 = or i8 %90, -8
  store i8 %91, ptr %59, align 1, !tbaa !3
  %92 = trunc i32 %82 to i8
  store i8 %92, ptr %75, align 1, !tbaa !3
  br label %93

93:                                               ; preds = %.split, %58, %64
  %.1 = phi i64 [ %74, %64 ], [ %.04145, %58 ], [ %.04145, %.split ]
  %94 = add i64 %.1, 2
  %.not = icmp ugt i64 %94, %7
  br i1 %.not, label %.loopexit, label %.split

.loopexit:                                        ; preds = %93, %50, %4
  %.042 = phi i64 [ 0, %4 ], [ %51, %50 ], [ %94, %93 ]
  ret i64 %.042
}